target datalayout = "e-m:e-p270:32:32-p271:32:32-p272:64:64-i64:64-i128:128-f80:128-n8:16:32:64-S128"
target triple = "x86_64-pc-linux-gnu"

%struct._php_stream_filter_factory = type { ptr }
%struct._php_stream_filter_ops = type { ptr, ptr, ptr }

@.str.3 = private unnamed_addr constant [17 x i8] c"ob_iconv_handler\00", align 1
@.str.4 = private unnamed_addr constant [11 x i8] c"ICONV_IMPL\00", align 1
@.str.5 = private unnamed_addr constant [14 x i8] c"ICONV_VERSION\00", align 1
@.str.77 = private unnamed_addr constant [6 x i8] c"glibc\00", align 1
@.str.78 = private unnamed_addr constant [25 x i8] c"ICONV_MIME_DECODE_STRICT\00", align 1
@.str.79 = private unnamed_addr constant [36 x i8] c"ICONV_MIME_DECODE_CONTINUE_ON_ERROR\00", align 1
@.str.80 = private unnamed_addr constant [8 x i8] c"unknown\00", align 1
@php_iconv_stream_filter_register_factory.filter_factory = internal constant %struct._php_stream_filter_factory { ptr @php_iconv_stream_filter_factory_create }, align 8
@php_iconv_stream_filter_ops = internal constant %struct._php_stream_filter_ops { ptr @php_iconv_stream_filter_do_filter, ptr @php_iconv_stream_filter_cleanup, ptr @.str.101 }, align 8

; Function Attrs: nounwind uwtable
define internal ptr @get_iconv_version() #0 {
  %1 = alloca ptr, align 8
  call void @llvm.lifetime.start.p0(i64 8, ptr %1) #15
  store ptr @.str.80, ptr %1, align 8, !tbaa !23
  %2 = call ptr @gnu_get_libc_version() #15
  store ptr %2, ptr %1, align 8, !tbaa !23
  %3 = load ptr, ptr %1, align 8, !tbaa !23
  call void @llvm.lifetime.end.p0(i64 8, ptr %1) #15
  ret ptr %3
}

; Function Attrs: nounwind uwtable
define internal void @register_iconv_symbols(i32 noundef %0) #0 {
  %2 = alloca i32, align 4
  store i32 %0, ptr %2, align 4, !tbaa !4
  %3 = load i32, ptr %2, align 4, !tbaa !4
  call void @zend_register_string_constant(ptr noundef @.str.4, i64 noundef 10, ptr noundef @.str.77, i32 noundef 1, i32 noundef %3)
  %4 = call ptr @get_iconv_version()
  %5 = load i32, ptr %2, align 4, !tbaa !4
  call void @zend_register_string_constant(ptr noundef @.str.5, i64 noundef 13, ptr noundef %4, i32 noundef 1, i32 noundef %5)
  %6 = load i32, ptr %2, align 4, !tbaa !4
  call void @zend_register_long_constant(ptr noundef @.str.78, i64 noundef 24, i64 noundef 1, i32 noundef 1, i32 noundef %6)
  %7 = load i32, ptr %2, align 4, !tbaa !4
  call void @zend_register_long_constant(ptr noundef @.str.79, i64 noundef 35, i64 noundef 2, i32 noundef 1, i32 noundef %7)
  ret void
}

; Function Attrs: nounwind uwtable
define internal i32 @php_iconv_stream_filter_register_factory() #0 {
  %1 = alloca i32, align 4
  %2 = load ptr, ptr getelementptr inbounds nuw (%struct._php_stream_filter_ops, ptr @php_iconv_stream_filter_ops, i32 0, i32 2), align 8, !tbaa !21
  %3 = call i32 @php_stream_filter_register_factory(ptr noundef %2, ptr noundef @php_iconv_stream_filter_register_factory.filter_factory)
  %4 = icmp eq i32 -1, %3
  br i1 %4, label %5, label %6

5:                                                ; preds = %0
  store i32 6, ptr %1, align 4
  br label %7

6:                                                ; preds = %0
  store i32 0, ptr %1, align 4
  br label %7

7:                                                ; preds = %6, %5
  %8 = load i32, ptr %1, align 4
  ret i32 %8
}

; Function Attrs: nounwind uwtable
define hidden i32 @zm_startup_miconv(i32 noundef %0, i32 noundef %1) #0 {
  %3 = alloca i32, align 4
  %4 = alloca i32, align 4
  %5 = alloca i32, align 4
  store i32 %0, ptr %4, align 4, !tbaa !4
  store i32 %1, ptr %5, align 4, !tbaa !4
  %6 = load i32, ptr %5, align 4, !tbaa !4
  %7 = load i32, ptr %4, align 4, !tbaa !4
  %8 = call i32 @zend_register_ini_entries_ex(ptr noundef @ini_entries, i32 noundef %6, i32 noundef %7)
  %9 = call i32 @php_iconv_stream_filter_register_factory()
  %10 = icmp ne i32 %9, 0
  br i1 %10, label %11, label %12

11:                                               ; preds = %2
  store i32 -1, ptr %3, align 4
  br label %16

12:                                               ; preds = %2
  %13 = load i32, ptr %5, align 4, !tbaa !4
  call void @register_iconv_symbols(i32 noundef %13)
  %14 = call i32 @php_output_handler_alias_register(ptr noundef @.str.3, i64 noundef 16, ptr noundef @php_iconv_output_handler_init)
  %15 = call i32 @php_output_handler_conflict_register(ptr noundef @.str.3, i64 noundef 16, ptr noundef @php_iconv_output_conflict)
  store i32 0, ptr %3, align 4
  br label %16

16:                                               ; preds = %12, %11
  %17 = load i32, ptr %3, align 4
  ret i32 %17
}