; Function Attrs: nounwind uwtable
define hidden range(i32 -1, 1) i32 @zm_startup_miconv(i32 noundef %0, i32 noundef %1) #0 {
  %3 = tail call i32 @zend_register_ini_entries_ex(ptr noundef nonnull @ini_entries, i32 noundef %1, i32 noundef %0) #16
  %4 = tail call i32 @php_stream_filter_register_factory(ptr noundef nonnull @.str.101, ptr noundef nonnull @php_iconv_stream_filter_register_factory.filter_factory) #16
  %.not = icmp eq i32 %4, -1
  br i1 %.not, label %9, label %5

5:                                                ; preds = %2
  tail call void @zend_register_string_constant(ptr noundef nonnull @.str.4, i64 noundef 10, ptr noundef nonnull @.str.77, i32 noundef 1, i32 noundef %1) #16
  %6 = tail call ptr @gnu_get_libc_version() #16
  tail call void @zend_register_string_constant(ptr noundef nonnull @.str.5, i64 noundef 13, ptr noundef %6, i32 noundef 1, i32 noundef %1) #16
  tail call void @zend_register_long_constant(ptr noundef nonnull @.str.78, i64 noundef 24, i64 noundef 1, i32 noundef 1, i32 noundef %1) #16
  tail call void @zend_register_long_constant(ptr noundef nonnull @.str.79, i64 noundef 35, i64 noundef 2, i32 noundef 1, i32 noundef %1) #16
  %7 = tail call i32 @php_output_handler_alias_register(ptr noundef nonnull @.str.3, i64 noundef 16, ptr noundef nonnull @php_iconv_output_handler_init) #16
  %8 = tail call i32 @php_output_handler_conflict_register(ptr noundef nonnull @.str.3, i64 noundef 16, ptr noundef nonnull @php_iconv_output_conflict) #16
  br label %9

9:                                                ; preds = %2, %5
  %.0 = phi i32 [ 0, %5 ], [ -1, %2 ]
  ret i32 %.0
}